target datalayout = "e-m:e-p270:32:32-p271:32:32-p272:64:64-i64:64-i128:128-f80:128-n8:16:32:64-S128"
target triple = "x86_64-pc-linux-gnu"

%struct.AVCodecContext = type { ptr, i32, i32, ptr, i32, i32, ptr, ptr, ptr, i64, i32, i32, ptr, i32, %struct.AVRational, %struct.AVRational, %struct.AVRational, i32, i32, i32, i32, i32, %struct.AVRational, i32, i32, i32, i32, i32, i32, i32, i32, i32, i32, i32, ptr, ptr, i32, float, float, float, float, float, float, float, float, float, i32, i32, i32, i32, i32, i32, i32, i32, i32, i32, i32, i32, ptr, ptr, ptr, i32, i32, i32, i32, i32, i32, i32, i32, i32, i32, %struct.AVChannelLayout, i32, i32, i32, i32, i32, i32, i32, i32, ptr, i32, i32, i32, float, float, i32, i32, i32, i32, i32, ptr, i64, i64, float, float, i32, i32, ptr, ptr, i32, i32, i32, i32, i32, ptr, ptr, ptr, ptr, i32, i32, [8 x i64], i32, i32, i32, i32, i32, i32, i32, ptr, ptr, i32, i32, i32, i32, i32, i32, i32, i32, i32, i32, ptr, ptr, i32, i32, ptr, ptr, ptr, ptr, i32, i32, i64, i32, i32, i64, ptr, i64, ptr, i32, ptr, i32 }
%struct.AVRational = type { i32, i32 }
%struct.AVChannelLayout = type { i32, i32, %union.anon, ptr }
%union.anon = type { i64 }
%struct.VP8Context = type { ptr, ptr, i32, i32, [4 x ptr], [4 x ptr], ptr, ptr, i16, i16, i64, i64, i8, i8, i8, i8, %struct.VP8mvbounds, [4 x i8], [3 x i32], %struct.anon, %struct.anon.0, ptr, ptr, [4 x i8], [4 x %struct.anon.1], %struct.anon.2, %struct.anon.3, ptr, ptr, %struct.VPXRangeCoder, %struct.anon.4, i32, [2 x %struct.anon.5], ptr, i32, i32, i32, i32, i32, i32, [8 x %struct.VPXRangeCoder], [8 x i32], %struct.VideoDSPContext, %struct.VP8DSPContext, %struct.H264PredContext, [3 x [3 x [3 x ptr]]], [5 x %struct.VP8Frame], i8, i8, i32, i32, ptr, ptr, [2 x [2 x i16]], [4 x i8], [4 x i8], [4 x [3 x i8]], [4 x [4 x i8]] }
%struct.VP8mvbounds = type { %struct.VP8intmv, %struct.VP8intmv }
%struct.VP8intmv = type { i32, i32 }
%struct.anon = type { i8, i8, i8, i8, [4 x i8], [4 x i8] }
%struct.anon.0 = type { i8, i8, i8 }
%struct.anon.1 = type { [2 x i16], [2 x i16], [2 x i16] }
%struct.anon.2 = type { i32, i32, i32, i32, i32, i32 }
%struct.anon.3 = type { i8, i8, [8 x i8], [4 x i8] }
%struct.VPXRangeCoder = type { i32, i32, ptr, ptr, i32, i32 }
%struct.anon.4 = type { ptr, i32, i32, i32 }
%struct.anon.5 = type { [3 x i8], i8, i8, i8, i8, [4 x i8], [3 x i8], [4 x [16 x [3 x [11 x i8]]]], [2 x [19 x i8]], [16 x i8] }
%struct.VideoDSPContext = type { ptr, ptr }
%struct.VP8DSPContext = type { ptr, ptr, ptr, ptr, ptr, ptr, ptr, ptr, ptr, ptr, ptr, ptr, ptr, ptr, ptr, ptr, [3 x [3 x [3 x ptr]]], [3 x [3 x [3 x ptr]]] }
%struct.H264PredContext = type { [15 x ptr], [12 x ptr], [11 x ptr], [9 x ptr], [2 x ptr], [2 x ptr], [2 x ptr], [3 x ptr], [3 x ptr] }
%struct.VP8Frame = type { %struct.ProgressFrame, ptr, ptr }
%struct.ProgressFrame = type { ptr, ptr }
%struct._VASliceParameterBufferVP8 = type { i32, i32, i32, i32, i8, [9 x i32], [4 x i32] }

; Function Attrs: nounwind uwtable
define internal i32 @vaapi_vp8_decode_slice(ptr noundef %0, ptr noundef %1, i32 noundef %2) #0 {
  %4 = alloca i32, align 4
  %5 = alloca ptr, align 8
  %6 = alloca ptr, align 8
  %7 = alloca i32, align 4
  %8 = alloca ptr, align 8
  %9 = alloca ptr, align 8
  %10 = alloca %struct._VASliceParameterBufferVP8, align 4
  %11 = alloca i32, align 4
  %12 = alloca i32, align 4
  %13 = alloca i32, align 4
  %14 = alloca ptr, align 8
  %15 = alloca i32, align 4
  %16 = alloca %struct._VASliceParameterBufferVP8, align 4
  %17 = alloca i32, align 4
  store ptr %0, ptr %5, align 8, !tbaa !4
  store ptr %1, ptr %6, align 8, !tbaa !11
  store i32 %2, ptr %7, align 4, !tbaa !13
  call void @llvm.lifetime.start.p0(i64 8, ptr %8) #7
  %18 = load ptr, ptr %5, align 8, !tbaa !4
  %19 = getelementptr inbounds nuw %struct.AVCodecContext, ptr %18, i32 0, i32 6
  %20 = load ptr, ptr %19, align 8, !tbaa !15
  store ptr %20, ptr %8, align 8, !tbaa !32
  call void @llvm.lifetime.start.p0(i64 8, ptr %9) #7
  %21 = load ptr, ptr %8, align 8, !tbaa !32
  %22 = getelementptr inbounds nuw %struct.VP8Context, ptr %21, i32 0, i32 4
  %23 = getelementptr inbounds [4 x ptr], ptr %22, i64 0, i64 0
  %24 = load ptr, ptr %23, align 8, !tbaa !34
  %25 = getelementptr inbounds nuw %struct.VP8Frame, ptr %24, i32 0, i32 2
  %26 = load ptr, ptr %25, align 8, !tbaa !36
  store ptr %26, ptr %9, align 8, !tbaa !41
  call void @llvm.lifetime.start.p0(i64 72, ptr %10) #7
  call void @llvm.lifetime.start.p0(i64 4, ptr %11) #7
  call void @llvm.lifetime.start.p0(i64 4, ptr %12) #7
  call void @llvm.lifetime.start.p0(i64 4, ptr %13) #7
  %27 = load ptr, ptr %8, align 8, !tbaa !32
  %28 = getelementptr inbounds nuw %struct.VP8Context, ptr %27, i32 0, i32 12
  %29 = load i8, ptr %28, align 8, !tbaa !55
  %30 = zext i8 %29 to i32
  %31 = mul nsw i32 7, %30
  %32 = add nsw i32 3, %31
  store i32 %32, ptr %13, align 4, !tbaa !13
  call void @llvm.lifetime.start.p0(i64 8, ptr %14) #7
  %33 = load ptr, ptr %6, align 8, !tbaa !11
  %34 = load i32, ptr %13, align 4, !tbaa !13
  %35 = zext i32 %34 to i64
  %36 = getelementptr inbounds nuw i8, ptr %33, i64 %35
  store ptr %36, ptr %14, align 8, !tbaa !11
  call void @llvm.lifetime.start.p0(i64 4, ptr %15) #7
  %37 = load i32, ptr %7, align 4, !tbaa !13
  %38 = load i32, ptr %13, align 4, !tbaa !13
  %39 = sub i32 %37, %38
  store i32 %39, ptr %15, align 4, !tbaa !13
  call void @llvm.memset.p0.i64(ptr align 4 %16, i8 0, i64 72, i1 false)
  %40 = getelementptr inbounds nuw %struct._VASliceParameterBufferVP8, ptr %16, i32 0, i32 0
  %41 = load i32, ptr %15, align 4, !tbaa !13
  store i32 %41, ptr %40, align 4, !tbaa !118
  %42 = getelementptr inbounds nuw %struct._VASliceParameterBufferVP8, ptr %16, i32 0, i32 3
  %43 = load ptr, ptr %8, align 8, !tbaa !32
  %44 = getelementptr inbounds nuw %struct.VP8Context, ptr %43, i32 0, i32 30
  %45 = getelementptr inbounds nuw %struct.anon.4, ptr %44, i32 0, i32 0
  %46 = load ptr, ptr %45, align 8, !tbaa !120
  %47 = load ptr, ptr %14, align 8, !tbaa !11
  %48 = ptrtoint ptr %46 to i64
  %49 = ptrtoint ptr %47 to i64
  %50 = sub i64 %48, %49
  %51 = mul nsw i64 8, %50
  %52 = load ptr, ptr %8, align 8, !tbaa !32
  %53 = getelementptr inbounds nuw %struct.VP8Context, ptr %52, i32 0, i32 30
  %54 = getelementptr inbounds nuw %struct.anon.4, ptr %53, i32 0, i32 3
  %55 = load i32, ptr %54, align 8, !tbaa !105
  %56 = sext i32 %55 to i64
  %57 = sub nsw i64 %51, %56
  %58 = sub nsw i64 %57, 8
  %59 = trunc i64 %58 to i32
  store i32 %59, ptr %42, align 4, !tbaa !121
  %60 = getelementptr inbounds nuw %struct._VASliceParameterBufferVP8, ptr %16, i32 0, i32 4
  %61 = load ptr, ptr %8, align 8, !tbaa !32
  %62 = getelementptr inbounds nuw %struct.VP8Context, ptr %61, i32 0, i32 39
  %63 = load i32, ptr %62, align 4, !tbaa !122
  %64 = add nsw i32 %63, 1
  %65 = trunc i32 %64 to i8
  store i8 %65, ptr %60, align 4, !tbaa !123
  call void @llvm.memcpy.p0.p0.i64(ptr align 4 %10, ptr align 4 %16, i64 72, i1 false), !tbaa.struct !124
  %66 = load ptr, ptr %8, align 8, !tbaa !32
  %67 = getelementptr inbounds nuw %struct.VP8Context, ptr %66, i32 0, i32 31
  %68 = load i32, ptr %67, align 8, !tbaa !125
  %69 = getelementptr inbounds nuw %struct._VASliceParameterBufferVP8, ptr %10, i32 0, i32 3
  %70 = load i32, ptr %69, align 4, !tbaa !121
  %71 = add i32 %70, 7
  %72 = udiv i32 %71, 8
  %73 = sub i32 %68, %72
  %74 = getelementptr inbounds nuw %struct._VASliceParameterBufferVP8, ptr %10, i32 0, i32 5
  %75 = getelementptr inbounds [9 x i32], ptr %74, i64 0, i64 0
  store i32 %73, ptr %75, align 4, !tbaa !13
  store i32 0, ptr %12, align 4, !tbaa !13
  br label %76

76:                                               ; preds = %91, %3
  %77 = load i32, ptr %12, align 4, !tbaa !13
  %78 = icmp slt i32 %77, 8
  br i1 %78, label %79, label %94

79:                                               ; preds = %76
  %80 = load ptr, ptr %8, align 8, !tbaa !32
  %81 = getelementptr inbounds nuw %struct.VP8Context, ptr %80, i32 0, i32 41
  %82 = load i32, ptr %12, align 4, !tbaa !13
  %83 = sext i32 %82 to i64
  %84 = getelementptr inbounds [8 x i32], ptr %81, i64 0, i64 %83
  %85 = load i32, ptr %84, align 4, !tbaa !13
  %86 = getelementptr inbounds nuw %struct._VASliceParameterBufferVP8, ptr %10, i32 0, i32 5
  %87 = load i32, ptr %12, align 4, !tbaa !13
  %88 = add nsw i32 %87, 1
  %89 = sext i32 %88 to i64
  %90 = getelementptr inbounds [9 x i32], ptr %86, i64 0, i64 %89
  store i32 %85, ptr %90, align 4, !tbaa !13
  br label %91

91:                                               ; preds = %79
  %92 = load i32, ptr %12, align 4, !tbaa !13
  %93 = add nsw i32 %92, 1
  store i32 %93, ptr %12, align 4, !tbaa !13
  br label %76, !llvm.loop !126

94:                                               ; preds = %76
  %95 = load ptr, ptr %5, align 8, !tbaa !4
  %96 = load ptr, ptr %9, align 8, !tbaa !41
  %97 = load ptr, ptr %14, align 8, !tbaa !11
  %98 = load i32, ptr %15, align 4, !tbaa !13
  %99 = zext i32 %98 to i64
  %100 = call i32 @ff_vaapi_decode_make_slice_buffer(ptr noundef %95, ptr noundef %96, ptr noundef %10, i32 noundef 1, i64 noundef 72, ptr noundef %97, i64 noundef %99)
  store i32 %100, ptr %11, align 4, !tbaa !13
  %101 = load i32, ptr %11, align 4, !tbaa !13
  %102 = icmp ne i32 %101, 0
  br i1 %102, label %103, label %104

103:                                              ; preds = %94
  br label %105

104:                                              ; preds = %94
  store i32 0, ptr %4, align 4
  store i32 1, ptr %17, align 4
  br label %110

105:                                              ; preds = %103
  %106 = load ptr, ptr %5, align 8, !tbaa !4
  %107 = load ptr, ptr %9, align 8, !tbaa !41
  %108 = call i32 @ff_vaapi_decode_cancel(ptr noundef %106, ptr noundef %107)
  %109 = load i32, ptr %11, align 4, !tbaa !13
  store i32 %109, ptr %4, align 4
  store i32 1, ptr %17, align 4
  br label %110

110:                                              ; preds = %105, %104
  call void @llvm.lifetime.end.p0(i64 4, ptr %15) #7
  call void @llvm.lifetime.end.p0(i64 8, ptr %14) #7
  call void @llvm.lifetime.end.p0(i64 4, ptr %13) #7
  call void @llvm.lifetime.end.p0(i64 4, ptr %12) #7
  call void @llvm.lifetime.end.p0(i64 4, ptr %11) #7
  call void @llvm.lifetime.end.p0(i64 72, ptr %10) #7
  call void @llvm.lifetime.end.p0(i64 8, ptr %9) #7
  call void @llvm.lifetime.end.p0(i64 8, ptr %8) #7
  %111 = load i32, ptr %4, align 4
  ret i32 %111
}