; Function Attrs: nounwind uwtable
define internal i32 @vaapi_vp8_decode_slice(ptr noundef %0, ptr noundef %1, i32 noundef %2) #0 {
  %4 = alloca %struct._VASliceParameterBufferVP8, align 4
  %5 = getelementptr inbounds nuw i8, ptr %0, i64 32
  %6 = load ptr, ptr %5, align 8, !tbaa !4
  %7 = getelementptr inbounds nuw i8, ptr %6, i64 24
  %8 = load ptr, ptr %7, align 8, !tbaa !27
  %9 = getelementptr inbounds nuw i8, ptr %8, i64 24
  %10 = load ptr, ptr %9, align 8, !tbaa !29
  call void @llvm.lifetime.start.p0(i64 72, ptr nonnull %4) #6
  %11 = getelementptr inbounds nuw i8, ptr %6, i64 128
  %12 = load i8, ptr %11, align 8, !tbaa !40
  %13 = zext i8 %12 to i32
  %14 = mul nuw nsw i32 %13, 7
  %15 = add nuw nsw i32 %14, 3
  %16 = zext nneg i32 %15 to i64
  %17 = getelementptr inbounds nuw i8, ptr %1, i64 %16
  %18 = sub i32 %2, %15
  %.sroa.5.0..sroa_idx = getelementptr inbounds nuw i8, ptr %4, i64 17
  call void @llvm.memset.p0.i64(ptr noundef nonnull align 1 dereferenceable(55) %.sroa.5.0..sroa_idx, i8 0, i64 55, i1 false)
  %19 = getelementptr inbounds nuw i8, ptr %6, i64 344
  %20 = load ptr, ptr %19, align 8, !tbaa !102
  %21 = ptrtoint ptr %20 to i64
  %22 = ptrtoint ptr %17 to i64
  %23 = sub i64 %21, %22
  %24 = getelementptr inbounds nuw i8, ptr %6, i64 360
  %25 = load i32, ptr %24, align 8, !tbaa !89
  %.tr = trunc i64 %23 to i32
  %26 = shl i32 %.tr, 3
  %27 = sub i32 %26, %25
  %28 = add i32 %27, -8
  %29 = getelementptr inbounds nuw i8, ptr %6, i64 4764
  %30 = load i32, ptr %29, align 4, !tbaa !103
  %31 = trunc i32 %30 to i8
  %32 = add i8 %31, 1
  store i32 %18, ptr %4, align 4, !tbaa !73
  %.sroa.3.0..sroa_idx = getelementptr inbounds nuw i8, ptr %4, i64 4
  store i64 0, ptr %.sroa.3.0..sroa_idx, align 4
  %.sroa.31.0..sroa_idx = getelementptr inbounds nuw i8, ptr %4, i64 12
  store i32 %28, ptr %.sroa.31.0..sroa_idx, align 4, !tbaa !73
  %.sroa.4.0..sroa_idx = getelementptr inbounds nuw i8, ptr %4, i64 16
  store i8 %32, ptr %.sroa.4.0..sroa_idx, align 4, !tbaa !65
  %33 = getelementptr inbounds nuw i8, ptr %6, i64 368
  %34 = load i32, ptr %33, align 8, !tbaa !104
  %35 = add i32 %27, -1
  %36 = lshr i32 %35, 3
  %37 = sub i32 %34, %36
  %38 = getelementptr inbounds nuw i8, ptr %4, i64 20
  store i32 %37, ptr %38, align 4, !tbaa !73
  %39 = getelementptr inbounds nuw i8, ptr %6, i64 5024
  br label %40

40:                                               ; preds = %3, %40
  %indvars.iv = phi i64 [ 0, %3 ], [ %indvars.iv.next, %40 ]
  %41 = getelementptr inbounds nuw [8 x i32], ptr %39, i64 0, i64 %indvars.iv
  %42 = load i32, ptr %41, align 4, !tbaa !73
  %indvars.iv.next = add nuw nsw i64 %indvars.iv, 1
  %43 = getelementptr inbounds nuw [9 x i32], ptr %38, i64 0, i64 %indvars.iv.next
  store i32 %42, ptr %43, align 4, !tbaa !73
  %exitcond.not = icmp eq i64 %indvars.iv.next, 8
  br i1 %exitcond.not, label %44, label %40, !llvm.loop !105

44:                                               ; preds = %40
  %45 = zext i32 %18 to i64
  %46 = call i32 @ff_vaapi_decode_make_slice_buffer(ptr noundef nonnull %0, ptr noundef %10, ptr noundef nonnull %4, i32 noundef 1, i64 noundef 72, ptr noundef nonnull %17, i64 noundef %45) #6
  %.not = icmp eq i32 %46, 0
  br i1 %.not, label %49, label %47

47:                                               ; preds = %44
  %48 = call i32 @ff_vaapi_decode_cancel(ptr noundef nonnull %0, ptr noundef %10) #6
  br label %49

49:                                               ; preds = %44, %47
  call void @llvm.lifetime.end.p0(i64 72, ptr nonnull %4) #6
  ret i32 %46
}